; Function Attrs: mustprogress nounwind uwtable
define hidden noundef zeroext i1 @_ZNK6Method15is_klass_loadedEiN9Bytecodes4CodeEb(ptr nocapture noundef nonnull readonly align 8 dereferenceable(88) %0, i32 noundef %1, i32 noundef %2, i1 noundef zeroext %3) local_unnamed_addr #0 align 2 {
  %5 = getelementptr inbounds i8, ptr %0, i64 8
  %6 = load ptr, ptr %5, align 8
  %7 = getelementptr inbounds i8, ptr %6, i64 8
  %8 = load ptr, ptr %7, align 8
  %9 = tail call noundef zeroext i16 @_ZN12ConstantPool18klass_ref_index_atEiN9Bytecodes4CodeE(ptr noundef nonnull align 8 dereferenceable(68) %8, i32 noundef %1, i32 noundef %2) #23
  %10 = zext i16 %9 to i32
  br i1 %3, label %11, label %21

11:                                               ; preds = %4
  %12 = load ptr, ptr %5, align 8
  %13 = getelementptr inbounds i8, ptr %12, i64 8
  %14 = load ptr, ptr %13, align 8
  %15 = getelementptr inbounds i8, ptr %14, i64 8
  %16 = load ptr, ptr %15, align 8
  %17 = getelementptr inbounds i8, ptr %16, i64 4
  %18 = zext i16 %9 to i64
  %19 = getelementptr inbounds i8, ptr %17, i64 %18
  %20 = load volatile i8, ptr %19, align 1
  tail call void asm sideeffect "", "~{memory},~{dirflag},~{fpsr},~{flags}"() #23, !srcloc !6
  switch i8 %20, label %21 [
    i8 103, label %23
    i8 100, label %23
  ]

21:                                               ; preds = %11, %4
  %22 = tail call noundef zeroext i1 @_ZNK6Method30is_klass_loaded_by_klass_indexEi(ptr noundef nonnull align 8 dereferenceable(88) %0, i32 noundef %10)
  br label %23

23:                                               ; preds = %11, %11, %21
  %.0 = phi i1 [ %22, %21 ], [ false, %11 ], [ false, %11 ]
  ret i1 %.0
}